; Function Attrs: mustprogress nounwind uwtable
define void @_ZN4YAML12EmitterState29RestoreGlobalModifiedSettingsEv(ptr noundef nonnull readonly align 8 captures(none) dereferenceable(224) %0) local_unnamed_addr #3 align 2 personality ptr @__gxx_personality_v0 {
  %2 = getelementptr inbounds nuw i8, ptr %0, i64 152
  %3 = load ptr, ptr %2, align 8, !tbaa !78
  %4 = getelementptr inbounds nuw i8, ptr %0, i64 160
  %5 = load ptr, ptr %4, align 8, !tbaa !78
  %.not7.i = icmp eq ptr %3, %5
  br i1 %.not7.i, label %_ZN4YAML14SettingChanges7restoreEv.exit, label %.lr.ph.i

.lr.ph.i:                                         ; preds = %1, %10
  %.sroa.04.08.i = phi ptr [ %11, %10 ], [ %3, %1 ]
  %6 = load ptr, ptr %.sroa.04.08.i, align 8, !tbaa !79
  %7 = load ptr, ptr %6, align 8, !tbaa !81
  %8 = getelementptr inbounds nuw i8, ptr %7, i64 16
  %9 = load ptr, ptr %8, align 8
  invoke void %9(ptr noundef nonnull align 8 dereferenceable(8) %6)
          to label %10 unwind label %12

10:                                               ; preds = %.lr.ph.i
  %11 = getelementptr inbounds nuw i8, ptr %.sroa.04.08.i, i64 8
  %.not.i = icmp eq ptr %11, %5
  br i1 %.not.i, label %_ZN4YAML14SettingChanges7restoreEv.exit, label %.lr.ph.i

12:                                               ; preds = %.lr.ph.i
  %13 = landingpad { ptr, i32 }
          catch ptr null
  %14 = extractvalue { ptr, i32 } %13, 0
  tail call void @__clang_call_terminate(ptr %14) #18
  unreachable

_ZN4YAML14SettingChanges7restoreEv.exit:          ; preds = %10, %1
  ret void
}